target datalayout = "e-m:e-p270:32:32-p271:32:32-p272:64:64-i64:64-i128:128-f80:128-n8:16:32:64-S128"
target triple = "x86_64-pc-linux-gnu"

%struct.Aig_Obj_t_ = type { %union.anon, ptr, ptr, i64, i32, i32, %union.anon.0 }
%union.anon = type { ptr }
%union.anon.0 = type { ptr }
%struct.Vec_Ptr_t_ = type { i32, i32, ptr }

; Function Attrs: inlinehint nounwind uwtable
define internal i32 @Abc_TruthWordNum(i32 noundef %0) #2 {
  %2 = alloca i32, align 4
  store i32 %0, ptr %2, align 4, !tbaa !10
  %3 = load i32, ptr %2, align 4, !tbaa !10
  %4 = icmp sle i32 %3, 5
  br i1 %4, label %5, label %6

5:                                                ; preds = %1
  br label %10

6:                                                ; preds = %1
  %7 = load i32, ptr %2, align 4, !tbaa !10
  %8 = sub nsw i32 %7, 5
  %9 = shl i32 1, %8
  br label %10

10:                                               ; preds = %6, %5
  %11 = phi i32 [ 1, %5 ], [ %9, %6 ]
  ret i32 %11
}

; Function Attrs: inlinehint nounwind uwtable
define internal ptr @Vec_PtrEntry(ptr noundef %0, i32 noundef %1) #2 {
  %3 = alloca ptr, align 8
  %4 = alloca i32, align 4
  store ptr %0, ptr %3, align 8, !tbaa !22
  store i32 %1, ptr %4, align 4, !tbaa !10
  %5 = load ptr, ptr %3, align 8, !tbaa !22
  %6 = getelementptr inbounds nuw %struct.Vec_Ptr_t_, ptr %5, i32 0, i32 2
  %7 = load ptr, ptr %6, align 8, !tbaa !28
  %8 = load i32, ptr %4, align 4, !tbaa !10
  %9 = sext i32 %8 to i64
  %10 = getelementptr inbounds ptr, ptr %7, i64 %9
  %11 = load ptr, ptr %10, align 8, !tbaa !29
  ret ptr %11
}

; Function Attrs: inlinehint nounwind uwtable
define internal i32 @Vec_PtrSize(ptr noundef %0) #2 {
  %2 = alloca ptr, align 8
  store ptr %0, ptr %2, align 8, !tbaa !22
  %3 = load ptr, ptr %2, align 8, !tbaa !22
  %4 = getelementptr inbounds nuw %struct.Vec_Ptr_t_, ptr %3, i32 0, i32 1
  %5 = load i32, ptr %4, align 4, !tbaa !26
  ret i32 %5
}

; Function Attrs: nounwind uwtable
define ptr @Aig_ManCutTruth(ptr noundef %0, ptr noundef %1, ptr noundef %2, ptr noundef %3, ptr noundef %4) #0 {
  %6 = alloca ptr, align 8
  %7 = alloca ptr, align 8
  %8 = alloca ptr, align 8
  %9 = alloca ptr, align 8
  %10 = alloca ptr, align 8
  %11 = alloca ptr, align 8
  %12 = alloca i32, align 4
  %13 = alloca i32, align 4
  store ptr %0, ptr %6, align 8, !tbaa !3
  store ptr %1, ptr %7, align 8, !tbaa !22
  store ptr %2, ptr %8, align 8, !tbaa !22
  store ptr %3, ptr %9, align 8, !tbaa !22
  store ptr %4, ptr %10, align 8, !tbaa !22
  call void @llvm.lifetime.start.p0(i64 8, ptr %11) #3
  call void @llvm.lifetime.start.p0(i64 4, ptr %12) #3
  call void @llvm.lifetime.start.p0(i64 4, ptr %13) #3
  store i32 0, ptr %12, align 4, !tbaa !10
  br label %14

14:                                               ; preds = %31, %5
  %15 = load i32, ptr %12, align 4, !tbaa !10
  %16 = load ptr, ptr %7, align 8, !tbaa !22
  %17 = call i32 @Vec_PtrSize(ptr noundef %16)
  %18 = icmp slt i32 %15, %17
  br i1 %18, label %19, label %23

19:                                               ; preds = %14
  %20 = load ptr, ptr %7, align 8, !tbaa !22
  %21 = load i32, ptr %12, align 4, !tbaa !10
  %22 = call ptr @Vec_PtrEntry(ptr noundef %20, i32 noundef %21)
  store ptr %22, ptr %11, align 8, !tbaa !3
  br label %23

23:                                               ; preds = %19, %14
  %24 = phi i1 [ false, %14 ], [ true, %19 ]
  br i1 %24, label %25, label %34

25:                                               ; preds = %23
  %26 = load ptr, ptr %9, align 8, !tbaa !22
  %27 = load i32, ptr %12, align 4, !tbaa !10
  %28 = call ptr @Vec_PtrEntry(ptr noundef %26, i32 noundef %27)
  %29 = load ptr, ptr %11, align 8, !tbaa !3
  %30 = getelementptr inbounds nuw %struct.Aig_Obj_t_, ptr %29, i32 0, i32 6
  store ptr %28, ptr %30, align 8, !tbaa !12
  br label %31

31:                                               ; preds = %25
  %32 = load i32, ptr %12, align 4, !tbaa !10
  %33 = add nsw i32 %32, 1
  store i32 %33, ptr %12, align 4, !tbaa !10
  br label %14, !llvm.loop !24

34:                                               ; preds = %23
  %35 = load ptr, ptr %7, align 8, !tbaa !22
  %36 = call i32 @Vec_PtrSize(ptr noundef %35)
  %37 = call i32 @Abc_TruthWordNum(i32 noundef %36)
  store i32 %37, ptr %13, align 4, !tbaa !10
  store i32 0, ptr %12, align 4, !tbaa !10
  br label %38

38:                                               ; preds = %58, %34
  %39 = load i32, ptr %12, align 4, !tbaa !10
  %40 = load ptr, ptr %8, align 8, !tbaa !22
  %41 = call i32 @Vec_PtrSize(ptr noundef %40)
  %42 = icmp slt i32 %39, %41
  br i1 %42, label %43, label %47

43:                                               ; preds = %38
  %44 = load ptr, ptr %8, align 8, !tbaa !22
  %45 = load i32, ptr %12, align 4, !tbaa !10
  %46 = call ptr @Vec_PtrEntry(ptr noundef %44, i32 noundef %45)
  store ptr %46, ptr %11, align 8, !tbaa !3
  br label %47

47:                                               ; preds = %43, %38
  %48 = phi i1 [ false, %38 ], [ true, %43 ]
  br i1 %48, label %49, label %61

49:                                               ; preds = %47
  %50 = load ptr, ptr %11, align 8, !tbaa !3
  %51 = load ptr, ptr %10, align 8, !tbaa !22
  %52 = load i32, ptr %12, align 4, !tbaa !10
  %53 = call ptr @Vec_PtrEntry(ptr noundef %51, i32 noundef %52)
  %54 = load i32, ptr %13, align 4, !tbaa !10
  %55 = call ptr @Aig_ManCutTruthOne(ptr noundef %50, ptr noundef %53, i32 noundef %54)
  %56 = load ptr, ptr %11, align 8, !tbaa !3
  %57 = getelementptr inbounds nuw %struct.Aig_Obj_t_, ptr %56, i32 0, i32 6
  store ptr %55, ptr %57, align 8, !tbaa !12
  br label %58

58:                                               ; preds = %49
  %59 = load i32, ptr %12, align 4, !tbaa !10
  %60 = add nsw i32 %59, 1
  store i32 %60, ptr %12, align 4, !tbaa !10
  br label %38, !llvm.loop !25

61:                                               ; preds = %47
  %62 = load ptr, ptr %6, align 8, !tbaa !3
  %63 = getelementptr inbounds nuw %struct.Aig_Obj_t_, ptr %62, i32 0, i32 6
  %64 = load ptr, ptr %63, align 8, !tbaa !12
  call void @llvm.lifetime.end.p0(i64 4, ptr %13) #3
  call void @llvm.lifetime.end.p0(i64 4, ptr %12) #3
  call void @llvm.lifetime.end.p0(i64 8, ptr %11) #3
  ret ptr %64
}