; Function Attrs: nofree norecurse nosync nounwind memory(readwrite, inaccessiblemem: none) uwtable
define ptr @Aig_ManCutTruth(ptr noundef readonly captures(none) %0, ptr noundef readonly captures(none) %1, ptr noundef readonly captures(none) %2, ptr noundef readonly captures(none) %3, ptr noundef readonly captures(none) %4) local_unnamed_addr #1 {
  %6 = getelementptr i8, ptr %1, i64 4
  %.val27 = load i32, ptr %6, align 4, !tbaa !19
  %7 = icmp sgt i32 %.val27, 0
  br i1 %7, label %.lr.ph, label %.critedge

.lr.ph:                                           ; preds = %5
  %8 = getelementptr i8, ptr %1, i64 8
  %9 = getelementptr i8, ptr %3, i64 8
  br label %10

10:                                               ; preds = %.lr.ph, %10
  %indvars.iv = phi i64 [ 0, %.lr.ph ], [ %indvars.iv.next, %10 ]
  %.val23 = load ptr, ptr %8, align 8, !tbaa !21
  %11 = getelementptr inbounds nuw ptr, ptr %.val23, i64 %indvars.iv
  %12 = load ptr, ptr %11, align 8, !tbaa !22
  %.val24 = load ptr, ptr %9, align 8, !tbaa !21
  %13 = getelementptr inbounds nuw ptr, ptr %.val24, i64 %indvars.iv
  %14 = load ptr, ptr %13, align 8, !tbaa !22
  %15 = getelementptr inbounds nuw i8, ptr %12, i64 40
  store ptr %14, ptr %15, align 8, !tbaa !10
  %indvars.iv.next = add nuw nsw i64 %indvars.iv, 1
  %.val = load i32, ptr %6, align 4, !tbaa !19
  %16 = sext i32 %.val to i64
  %17 = icmp slt i64 %indvars.iv.next, %16
  br i1 %17, label %10, label %.critedge, !llvm.loop !23

.critedge:                                        ; preds = %10, %5
  %.val.lcssa = phi i32 [ %.val27, %5 ], [ %.val, %10 ]
  %18 = icmp slt i32 %.val.lcssa, 6
  %19 = add nsw i32 %.val.lcssa, -5
  %20 = shl nuw i32 1, %19
  %21 = select i1 %18, i32 1, i32 %20
  %22 = getelementptr i8, ptr %2, i64 4
  %.val2229 = load i32, ptr %22, align 4, !tbaa !19
  %23 = icmp sgt i32 %.val2229, 0
  br i1 %23, label %.lr.ph31, label %.critedge2

.lr.ph31:                                         ; preds = %.critedge
  %24 = getelementptr i8, ptr %2, i64 8
  %25 = getelementptr i8, ptr %4, i64 8
  br label %26

26:                                               ; preds = %.lr.ph31, %26
  %indvars.iv34 = phi i64 [ 0, %.lr.ph31 ], [ %indvars.iv.next35, %26 ]
  %.val25 = load ptr, ptr %24, align 8, !tbaa !21
  %27 = getelementptr inbounds nuw ptr, ptr %.val25, i64 %indvars.iv34
  %28 = load ptr, ptr %27, align 8, !tbaa !22
  %.val26 = load ptr, ptr %25, align 8, !tbaa !21
  %29 = getelementptr inbounds nuw ptr, ptr %.val26, i64 %indvars.iv34
  %30 = load ptr, ptr %29, align 8, !tbaa !22
  %31 = tail call ptr @Aig_ManCutTruthOne(ptr noundef %28, ptr noundef %30, i32 noundef %21)
  %32 = getelementptr inbounds nuw i8, ptr %28, i64 40
  store ptr %30, ptr %32, align 8, !tbaa !10
  %indvars.iv.next35 = add nuw nsw i64 %indvars.iv34, 1
  %.val22 = load i32, ptr %22, align 4, !tbaa !19
  %33 = sext i32 %.val22 to i64
  %34 = icmp slt i64 %indvars.iv.next35, %33
  br i1 %34, label %26, label %.critedge2, !llvm.loop !24

.critedge2:                                       ; preds = %26, %.critedge
  %35 = getelementptr inbounds nuw i8, ptr %0, i64 40
  %36 = load ptr, ptr %35, align 8, !tbaa !10
  ret ptr %36
}